target datalayout = "e-m:e-p270:32:32-p271:32:32-p272:64:64-i64:64-i128:128-f80:128-n8:16:32:64-S128"
target triple = "x86_64-pc-linux-gnu"

%struct.RBasic = type { i64, i64 }

@rb_eRangeError = external global i64, align 8
@.str.10 = private unnamed_addr constant [10 x i8] c"long long\00", align 1
@.str.11 = private unnamed_addr constant [43 x i8] c"bignum too big to convert into 'long long'\00", align 1

; Function Attrs: inlinehint nounwind sspstrong willreturn memory(read) uwtable
define internal i64 @RB_FL_TEST_RAW(i64 noundef %0, i64 noundef %1) #8 {
  %3 = alloca i64, align 8
  %4 = alloca i64, align 8
  store i64 %0, ptr %3, align 8, !tbaa !7
  store i64 %1, ptr %4, align 8, !tbaa !7
  %5 = load i64, ptr %3, align 8, !tbaa !7
  %6 = inttoptr i64 %5 to ptr
  %7 = getelementptr inbounds nuw %struct.RBasic, ptr %6, i32 0, i32 0
  %8 = load i64, ptr %7, align 8, !tbaa !17
  %9 = load i64, ptr %4, align 8, !tbaa !7
  %10 = and i64 %8, %9
  ret i64 %10
}

; Function Attrs: inlinehint nounwind sspstrong uwtable
define internal zeroext i1 @BIGNUM_SIGN(i64 noundef %0) #2 {
  %2 = alloca i64, align 8
  store i64 %0, ptr %2, align 8, !tbaa !7
  %3 = load i64, ptr %2, align 8, !tbaa !7
  %4 = call i64 @RB_FL_TEST_RAW(i64 noundef %3, i64 noundef 8192) #26
  %5 = icmp ne i64 %4, 0
  ret i1 %5
}

; Function Attrs: inlinehint nounwind sspstrong uwtable
define internal zeroext i1 @BIGNUM_POSITIVE_P(i64 noundef %0) #2 {
  %2 = alloca i64, align 8
  store i64 %0, ptr %2, align 8, !tbaa !7
  %3 = load i64, ptr %2, align 8, !tbaa !7
  %4 = call zeroext i1 @BIGNUM_SIGN(i64 noundef %3)
  ret i1 %4
}

; Function Attrs: nounwind sspstrong uwtable
define dso_local i64 @rb_big2ll(i64 noundef %0) #0 {
  %2 = alloca i64, align 8
  %3 = alloca i64, align 8
  %4 = alloca i64, align 8
  %5 = alloca i32, align 4
  store i64 %0, ptr %3, align 8, !tbaa !7
  call void @llvm.lifetime.start.p0(i64 8, ptr %4) #24
  %6 = load i64, ptr %3, align 8, !tbaa !7
  %7 = call i64 @big2ull(i64 noundef %6, ptr noundef @.str.10)
  store i64 %7, ptr %4, align 8, !tbaa !31
  %8 = load i64, ptr %3, align 8, !tbaa !7
  %9 = call zeroext i1 @BIGNUM_POSITIVE_P(i64 noundef %8)
  br i1 %9, label %10, label %16

10:                                               ; preds = %1
  %11 = load i64, ptr %4, align 8, !tbaa !31
  %12 = icmp ule i64 %11, 9223372036854775807
  br i1 %12, label %13, label %15

13:                                               ; preds = %10
  %14 = load i64, ptr %4, align 8, !tbaa !31
  store i64 %14, ptr %2, align 8
  store i32 1, ptr %5, align 4
  br label %27

15:                                               ; preds = %10
  br label %25

16:                                               ; preds = %1
  %17 = load i64, ptr %4, align 8, !tbaa !31
  %18 = icmp ule i64 %17, -9223372036854775808
  br i1 %18, label %19, label %24

19:                                               ; preds = %16
  %20 = load i64, ptr %4, align 8, !tbaa !31
  %21 = sub i64 %20, 1
  %22 = sub i64 0, %21
  %23 = sub i64 %22, 1
  store i64 %23, ptr %2, align 8
  store i32 1, ptr %5, align 4
  br label %27

24:                                               ; preds = %16
  br label %25

25:                                               ; preds = %24, %15
  %26 = load i64, ptr @rb_eRangeError, align 8, !tbaa !7
  call void (i64, ptr, ...) @rb_raise(i64 noundef %26, ptr noundef @.str.11) #29
  unreachable

27:                                               ; preds = %19, %13
  call void @llvm.lifetime.end.p0(i64 8, ptr %4) #24
  %28 = load i64, ptr %2, align 8
  ret i64 %28
}