; Function Attrs: nounwind sspstrong uwtable
define dso_local i64 @rb_big2ll(i64 noundef %0) local_unnamed_addr #0 {
  %2 = tail call fastcc i64 @big2ull(i64 noundef %0, ptr noundef nonnull @.str.10)
  %3 = inttoptr i64 %0 to ptr
  %4 = load i64, ptr %3, align 8, !tbaa !11
  %5 = and i64 %4, 8192
  %.not = icmp eq i64 %5, 0
  br i1 %.not, label %8, label %6

6:                                                ; preds = %1
  %7 = icmp sgt i64 %2, -1
  br i1 %7, label %14, label %12

8:                                                ; preds = %1
  %9 = icmp ult i64 %2, -9223372036854775807
  br i1 %9, label %10, label %12

10:                                               ; preds = %8
  %11 = sub i64 0, %2
  br label %14

12:                                               ; preds = %8, %6
  %13 = load i64, ptr @rb_eRangeError, align 8, !tbaa !7
  tail call void (i64, ptr, ...) @rb_raise(i64 noundef %13, ptr noundef nonnull @.str.11) #29
  unreachable

14:                                               ; preds = %6, %10
  %.0 = phi i64 [ %11, %10 ], [ %2, %6 ]
  ret i64 %.0
}